target datalayout = "e-m:e-p270:32:32-p271:32:32-p272:64:64-i64:64-i128:128-f80:128-n8:16:32:64-S128"
target triple = "x86_64-pc-linux-gnu"

%struct.mz_zip_archive = type { i64, i64, i32, i32, i32, i32, i64, ptr, ptr, ptr, ptr, ptr, ptr, ptr, ptr, ptr }
%struct.mz_zip_internal_state_tag = type { %struct.mz_zip_array, %struct.mz_zip_array, %struct.mz_zip_array, i32, i32, i32, ptr, i64, ptr, i64, i64 }
%struct.mz_zip_array = type { ptr, i64, i64, i32 }

; Function Attrs: alwaysinline nounwind uwtable
define internal i32 @mz_zip_set_error(ptr noundef %0, i32 noundef %1) #7 {
  %3 = alloca ptr, align 8
  %4 = alloca i32, align 4
  store ptr %0, ptr %3, align 8
  store i32 %1, ptr %4, align 4
  %5 = load ptr, ptr %3, align 8
  %6 = icmp ne ptr %5, null
  br i1 %6, label %7, label %11

7:                                                ; preds = %2
  %8 = load i32, ptr %4, align 4
  %9 = load ptr, ptr %3, align 8
  %10 = getelementptr inbounds nuw %struct.mz_zip_archive, ptr %9, i32 0, i32 5
  store i32 %8, ptr %10, align 4
  br label %11

11:                                               ; preds = %7, %2
  ret i32 0
}

; Function Attrs: nounwind uwtable
define i32 @mz_zip_writer_finalize_heap_archive(ptr noundef %0, ptr noundef %1, ptr noundef %2) #0 {
  %4 = alloca i32, align 4
  %5 = alloca ptr, align 8
  %6 = alloca ptr, align 8
  %7 = alloca ptr, align 8
  store ptr %0, ptr %5, align 8
  store ptr %1, ptr %6, align 8
  store ptr %2, ptr %7, align 8
  %8 = load ptr, ptr %6, align 8
  %9 = icmp ne ptr %8, null
  br i1 %9, label %10, label %13

10:                                               ; preds = %3
  %11 = load ptr, ptr %7, align 8
  %12 = icmp ne ptr %11, null
  br i1 %12, label %16, label %13

13:                                               ; preds = %10, %3
  %14 = load ptr, ptr %5, align 8
  %15 = call i32 @mz_zip_set_error(ptr noundef %14, i32 noundef 24)
  store i32 %15, ptr %4, align 4
  br label %67

16:                                               ; preds = %10
  %17 = load ptr, ptr %6, align 8
  store ptr null, ptr %17, align 8
  %18 = load ptr, ptr %7, align 8
  store i64 0, ptr %18, align 8
  %19 = load ptr, ptr %5, align 8
  %20 = icmp ne ptr %19, null
  br i1 %20, label %21, label %26

21:                                               ; preds = %16
  %22 = load ptr, ptr %5, align 8
  %23 = getelementptr inbounds nuw %struct.mz_zip_archive, ptr %22, i32 0, i32 15
  %24 = load ptr, ptr %23, align 8
  %25 = icmp ne ptr %24, null
  br i1 %25, label %29, label %26

26:                                               ; preds = %21, %16
  %27 = load ptr, ptr %5, align 8
  %28 = call i32 @mz_zip_set_error(ptr noundef %27, i32 noundef 24)
  store i32 %28, ptr %4, align 4
  br label %67

29:                                               ; preds = %21
  %30 = load ptr, ptr %5, align 8
  %31 = getelementptr inbounds nuw %struct.mz_zip_archive, ptr %30, i32 0, i32 12
  %32 = load ptr, ptr %31, align 8
  %33 = icmp ne ptr %32, @mz_zip_heap_write_func
  br i1 %33, label %34, label %37

34:                                               ; preds = %29
  %35 = load ptr, ptr %5, align 8
  %36 = call i32 @mz_zip_set_error(ptr noundef %35, i32 noundef 24)
  store i32 %36, ptr %4, align 4
  br label %67

37:                                               ; preds = %29
  %38 = load ptr, ptr %5, align 8
  %39 = call i32 @mz_zip_writer_finalize_archive(ptr noundef %38)
  %40 = icmp ne i32 %39, 0
  br i1 %40, label %42, label %41

41:                                               ; preds = %37
  store i32 0, ptr %4, align 4
  br label %67

42:                                               ; preds = %37
  %43 = load ptr, ptr %5, align 8
  %44 = getelementptr inbounds nuw %struct.mz_zip_archive, ptr %43, i32 0, i32 15
  %45 = load ptr, ptr %44, align 8
  %46 = getelementptr inbounds nuw %struct.mz_zip_internal_state_tag, ptr %45, i32 0, i32 8
  %47 = load ptr, ptr %46, align 8
  %48 = load ptr, ptr %6, align 8
  store ptr %47, ptr %48, align 8
  %49 = load ptr, ptr %5, align 8
  %50 = getelementptr inbounds nuw %struct.mz_zip_archive, ptr %49, i32 0, i32 15
  %51 = load ptr, ptr %50, align 8
  %52 = getelementptr inbounds nuw %struct.mz_zip_internal_state_tag, ptr %51, i32 0, i32 9
  %53 = load i64, ptr %52, align 8
  %54 = load ptr, ptr %7, align 8
  store i64 %53, ptr %54, align 8
  %55 = load ptr, ptr %5, align 8
  %56 = getelementptr inbounds nuw %struct.mz_zip_archive, ptr %55, i32 0, i32 15
  %57 = load ptr, ptr %56, align 8
  %58 = getelementptr inbounds nuw %struct.mz_zip_internal_state_tag, ptr %57, i32 0, i32 8
  store ptr null, ptr %58, align 8
  %59 = load ptr, ptr %5, align 8
  %60 = getelementptr inbounds nuw %struct.mz_zip_archive, ptr %59, i32 0, i32 15
  %61 = load ptr, ptr %60, align 8
  %62 = getelementptr inbounds nuw %struct.mz_zip_internal_state_tag, ptr %61, i32 0, i32 10
  store i64 0, ptr %62, align 8
  %63 = load ptr, ptr %5, align 8
  %64 = getelementptr inbounds nuw %struct.mz_zip_archive, ptr %63, i32 0, i32 15
  %65 = load ptr, ptr %64, align 8
  %66 = getelementptr inbounds nuw %struct.mz_zip_internal_state_tag, ptr %65, i32 0, i32 9
  store i64 0, ptr %66, align 8
  store i32 1, ptr %4, align 4
  br label %67

67:                                               ; preds = %42, %41, %34, %26, %13
  %68 = load i32, ptr %4, align 4
  ret i32 %68
}