; Function Attrs: nounwind uwtable
define range(i32 0, 2) i32 @mz_zip_writer_finalize_heap_archive(ptr noundef captures(address_is_null) %0, ptr noundef writeonly captures(address_is_null) %1, ptr noundef writeonly captures(address_is_null) %2) local_unnamed_addr #8 {
  %4 = icmp ne ptr %1, null
  %5 = icmp ne ptr %2, null
  %or.cond = and i1 %4, %5
  br i1 %or.cond, label %9, label %6

6:                                                ; preds = %3
  %.not.i28 = icmp eq ptr %0, null
  br i1 %.not.i28, label %mz_zip_set_error.exit29, label %7

7:                                                ; preds = %6
  %8 = getelementptr inbounds nuw i8, ptr %0, i64 28
  store i32 24, ptr %8, align 4
  br label %mz_zip_set_error.exit29

9:                                                ; preds = %3
  store ptr null, ptr %1, align 8
  store i64 0, ptr %2, align 8
  %.not = icmp eq ptr %0, null
  br i1 %.not, label %mz_zip_set_error.exit29, label %10

10:                                               ; preds = %9
  %11 = getelementptr inbounds nuw i8, ptr %0, i64 104
  %12 = load ptr, ptr %11, align 8
  %.not23 = icmp eq ptr %12, null
  br i1 %.not23, label %mz_zip_set_error.exit, label %14

mz_zip_set_error.exit:                            ; preds = %10
  %13 = getelementptr inbounds nuw i8, ptr %0, i64 28
  store i32 24, ptr %13, align 4
  br label %mz_zip_set_error.exit29

14:                                               ; preds = %10
  %15 = getelementptr inbounds nuw i8, ptr %0, i64 80
  %16 = load ptr, ptr %15, align 8
  %.not24 = icmp eq ptr %16, @mz_zip_heap_write_func
  br i1 %.not24, label %18, label %mz_zip_set_error.exit27

mz_zip_set_error.exit27:                          ; preds = %14
  %17 = getelementptr inbounds nuw i8, ptr %0, i64 28
  store i32 24, ptr %17, align 4
  br label %mz_zip_set_error.exit29

18:                                               ; preds = %14
  %19 = tail call i32 @mz_zip_writer_finalize_archive(ptr noundef nonnull %0)
  %.not25 = icmp eq i32 %19, 0
  br i1 %.not25, label %mz_zip_set_error.exit29, label %20

20:                                               ; preds = %18
  %21 = load ptr, ptr %11, align 8
  %22 = getelementptr inbounds nuw i8, ptr %21, i64 128
  %23 = load ptr, ptr %22, align 8
  store ptr %23, ptr %1, align 8
  %24 = load ptr, ptr %11, align 8
  %25 = getelementptr inbounds nuw i8, ptr %24, i64 136
  %26 = load i64, ptr %25, align 8
  store i64 %26, ptr %2, align 8
  %27 = load ptr, ptr %11, align 8
  %28 = getelementptr inbounds nuw i8, ptr %27, i64 128
  store ptr null, ptr %28, align 8
  %29 = load ptr, ptr %11, align 8
  %30 = getelementptr inbounds nuw i8, ptr %29, i64 144
  store i64 0, ptr %30, align 8
  %31 = load ptr, ptr %11, align 8
  %32 = getelementptr inbounds nuw i8, ptr %31, i64 136
  store i64 0, ptr %32, align 8
  br label %mz_zip_set_error.exit29

mz_zip_set_error.exit29:                          ; preds = %9, %7, %6, %18, %mz_zip_set_error.exit, %20, %mz_zip_set_error.exit27
  %.0 = phi i32 [ 0, %mz_zip_set_error.exit27 ], [ 1, %20 ], [ 0, %mz_zip_set_error.exit ], [ 0, %18 ], [ 0, %6 ], [ 0, %7 ], [ 0, %9 ]
  ret i32 %.0
}